; Function Attrs: mustprogress uwtable
define void @_ZN6icu_7715ReplaceableGlue20handleReplaceBetweenEiiRKNS_13UnicodeStringE(ptr noundef nonnull readonly align 8 captures(none) dereferenceable(24) %0, i32 noundef %1, i32 noundef %2, ptr noundef nonnull align 8 dereferenceable(64) %3) unnamed_addr #4 align 2 {
  %5 = getelementptr inbounds nuw i8, ptr %0, i64 16
  %6 = load ptr, ptr %5, align 8, !tbaa !14
  %7 = getelementptr inbounds nuw i8, ptr %6, i64 24
  %8 = load ptr, ptr %7, align 8, !tbaa !19
  %9 = getelementptr inbounds nuw i8, ptr %0, i64 8
  %10 = load ptr, ptr %9, align 8, !tbaa !6
  %11 = getelementptr inbounds nuw i8, ptr %3, i64 8
  %12 = load i16, ptr %11, align 8, !tbaa !20
  %13 = and i16 %12, 17
  %.not.i = icmp eq i16 %13, 0
  br i1 %.not.i, label %14, label %_ZNK6icu_7713UnicodeString9getBufferEv.exit

14:                                               ; preds = %4
  %15 = and i16 %12, 2
  %.not2.i = icmp eq i16 %15, 0
  br i1 %.not2.i, label %18, label %16

16:                                               ; preds = %14
  %17 = getelementptr inbounds nuw i8, ptr %3, i64 10
  br label %_ZNK6icu_7713UnicodeString9getBufferEv.exit

18:                                               ; preds = %14
  %19 = getelementptr inbounds nuw i8, ptr %3, i64 24
  %20 = load ptr, ptr %19, align 8, !tbaa !20
  br label %_ZNK6icu_7713UnicodeString9getBufferEv.exit

_ZNK6icu_7713UnicodeString9getBufferEv.exit:      ; preds = %4, %16, %18
  %.0.i = phi ptr [ %17, %16 ], [ %20, %18 ], [ null, %4 ]
  %21 = icmp slt i16 %12, 0
  %22 = ashr i16 %12, 5
  %23 = sext i16 %22 to i32
  %24 = getelementptr inbounds nuw i8, ptr %3, i64 12
  %25 = load i32, ptr %24, align 4
  %26 = select i1 %21, i32 %25, i32 %23
  tail call void %8(ptr noundef %10, i32 noundef %1, i32 noundef %2, ptr noundef %.0.i, i32 noundef %26)
  ret void
}